target datalayout = "e-m:e-p270:32:32-p271:32:32-p272:64:64-i64:64-i128:128-f80:128-n8:16:32:64-S128"
target triple = "x86_64-pc-linux-gnu"

%struct.Curl_cwtype = type { ptr, ptr, ptr, ptr, ptr, i64 }
%struct.curl_trc_feat = type { ptr, i32 }
%struct.Curl_cwriter = type { ptr, ptr, ptr, i32 }
%struct.cw_out_ctx = type { %struct.Curl_cwriter, ptr, i8 }
%struct.Curl_easy = type { i32, i64, i64, ptr, %struct.Curl_llist_node, %struct.Curl_llist_node, i32, i32, %struct.Curl_message, %struct.easy_pollset, %struct.Names, ptr, ptr, ptr, ptr, %struct.SingleRequest, %struct.UserDefined, ptr, ptr, ptr, %struct.Progress, %struct.UrlState, ptr, %struct.PureInfo, %struct.curl_tlssessioninfo }
%struct.Curl_llist_node = type { ptr, ptr, ptr, ptr }
%struct.Curl_message = type { %struct.Curl_llist_node, %struct.CURLMsg }
%struct.CURLMsg = type { i32, ptr, %union.anon }
%union.anon = type { ptr }
%struct.easy_pollset = type { [5 x i32], i32, [5 x i8] }
%struct.Names = type { ptr, i32 }
%struct.SingleRequest = type <{ i64, i64, i64, i64, %struct.curltime, i32, i32, i32, i32, i64, i32, i32, i8, i8, [2 x i8], i32, ptr, ptr, %struct.bufq, i64, i64, ptr, ptr, %union.anon.0, ptr, i8, i32, [3 x i8] }>
%struct.curltime = type { i64, i32 }
%struct.bufq = type { ptr, ptr, ptr, ptr, i64, i64, i64, i32 }
%union.anon.0 = type { ptr }
%struct.UserDefined = type <{ ptr, ptr, ptr, ptr, ptr, ptr, i64, i64, i64, ptr, ptr, i64, ptr, ptr, ptr, ptr, ptr, ptr, ptr, ptr, ptr, ptr, ptr, ptr, ptr, ptr, ptr, ptr, ptr, ptr, ptr, ptr, ptr, ptr, ptr, i64, i64, i64, i64, i64, i64, i64, i64, i64, ptr, ptr, %struct.curl_mimepart, ptr, ptr, ptr, i64, %struct.ssl_config_data, %struct.ssl_config_data, ptr, i16, i8, i8, %struct.ssl_general_config, i32, i32, i32, [4 x i8], ptr, ptr, i64, i32, i8, i8, i8, i8, ptr, ptr, ptr, i32, [4 x i8], [74 x ptr], [8 x ptr], i32, i32, i32, [4 x i8], ptr, i32, [4 x i8], ptr, ptr, ptr, ptr, ptr, i32, i32, i32, i32, i32, i32, i32, i32, i64, ptr, ptr, i64, ptr, i64, ptr, ptr, ptr, ptr, i32, i16, i16, i16, i8, i8, i8, i8, i8, i8, i8, i8, i64, [6 x i8] }>
%struct.curl_mimepart = type { ptr, ptr, i32, i32, ptr, ptr, ptr, ptr, ptr, ptr, ptr, ptr, ptr, ptr, ptr, i64, %struct.mime_state, ptr, %struct.mime_encoder_state, i64 }
%struct.mime_state = type { i32, ptr, i64 }
%struct.mime_encoder_state = type { i64, i64, i64, [256 x i8] }
%struct.ssl_config_data = type { %struct.ssl_primary_config, i64, ptr, ptr, ptr, ptr, ptr, ptr, ptr, i16 }
%struct.ssl_primary_config = type { ptr, ptr, ptr, ptr, ptr, ptr, ptr, ptr, ptr, ptr, ptr, ptr, ptr, ptr, i8, i32, i8, i8 }
%struct.ssl_general_config = type { i32 }
%struct.Progress = type { i64, %struct.pgrs_dir, %struct.pgrs_dir, i64, i64, i32, i32, i64, i64, i64, i64, i64, i64, i64, i64, i64, %struct.curltime, %struct.curltime, %struct.curltime, %struct.curltime, %struct.curltime, [6 x i64], [6 x %struct.curltime], i32, i8 }
%struct.pgrs_dir = type { i64, i64, i64, %struct.pgrs_measure }
%struct.pgrs_measure = type { %struct.curltime, i64 }
%struct.UrlState = type { %struct.curltime, i64, i64, %struct.dynbuf, ptr, i64, ptr, i32, i32, i32, ptr, i32, i64, i32, ptr, %struct.digestdata, %struct.digestdata, %struct.auth, %struct.auth, %struct.Curl_async, ptr, i8, %struct.curltime, %struct.Curl_tree, %struct.Curl_llist, [15 x %struct.time_node], ptr, ptr, i64, i64, i64, i64, [32 x i8], i64, ptr, ptr, ptr, %struct.urlpieces, ptr, ptr, ptr, ptr, ptr, i64, %struct.dynbuf, %struct.Curl_llist, [2 x %struct.curl_header], ptr, i32, ptr, ptr, %struct.store_netrc, %struct.dynamically_allocated_data, i8, i8, i8, i8, i32 }
%struct.digestdata = type { ptr, ptr, ptr, ptr, ptr, ptr, i32, i8, i8 }
%struct.auth = type { i64, i64, i64, i8 }
%struct.Curl_async = type { ptr, ptr, ptr, ptr, i32, i32, i8 }
%struct.Curl_tree = type { ptr, ptr, ptr, ptr, %struct.curltime, ptr }
%struct.time_node = type { %struct.Curl_llist_node, %struct.curltime, i32 }
%struct.urlpieces = type { ptr, ptr, ptr, ptr, ptr, ptr, ptr, ptr }
%struct.dynbuf = type { ptr, i64, i64, i64 }
%struct.Curl_llist = type { ptr, ptr, ptr, i64 }
%struct.curl_header = type { ptr, ptr, i64, i64, i32, ptr }
%struct.store_netrc = type { %struct.dynbuf, ptr, i8 }
%struct.dynamically_allocated_data = type { ptr, ptr, ptr, ptr, ptr, ptr, ptr, ptr, ptr, ptr, ptr, ptr, ptr, ptr }
%struct.PureInfo = type { i32, i32, i32, i64, i64, i64, i64, i64, i64, i64, ptr, ptr, i64, i32, %struct.ip_quadruple, i32, ptr, i32, %struct.curl_certinfo, i32, i8 }
%struct.ip_quadruple = type { [46 x i8], [46 x i8], i32, i32 }
%struct.curl_certinfo = type { i32, ptr }
%struct.curl_tlssessioninfo = type { i32, ptr }

@Curl_cwt_out = hidden global %struct.Curl_cwtype { ptr @.str, ptr null, ptr @cw_out_init, ptr @cw_out_write, ptr @cw_out_close, i64 48 }, align 8
@Curl_trc_feat_write = external global %struct.curl_trc_feat, align 8
@.str.1 = private unnamed_addr constant [18 x i8] c"cw-out is%spaused\00", align 1
@.str.2 = private unnamed_addr constant [1 x i8] zeroinitializer, align 1
@.str.3 = private unnamed_addr constant [5 x i8] c" not\00", align 1

; Function Attrs: nounwind uwtable
define hidden zeroext i1 @Curl_cw_out_is_paused(ptr noundef %0) #0 {
  %2 = alloca i1, align 1
  %3 = alloca ptr, align 8
  %4 = alloca ptr, align 8
  %5 = alloca ptr, align 8
  %6 = alloca i32, align 4
  store ptr %0, ptr %3, align 8, !tbaa !3
  call void @llvm.lifetime.start.p0(i64 8, ptr %4) #3
  call void @llvm.lifetime.start.p0(i64 8, ptr %5) #3
  %7 = load ptr, ptr %3, align 8, !tbaa !3
  %8 = call ptr @Curl_cwriter_get_by_type(ptr noundef %7, ptr noundef @Curl_cwt_out)
  store ptr %8, ptr %4, align 8, !tbaa !8
  %9 = load ptr, ptr %4, align 8, !tbaa !8
  %10 = icmp ne ptr %9, null
  br i1 %10, label %12, label %11

11:                                               ; preds = %1
  store i1 false, ptr %2, align 1
  store i32 1, ptr %6, align 4
  br label %61

12:                                               ; preds = %1
  %13 = load ptr, ptr %4, align 8, !tbaa !8
  store ptr %13, ptr %5, align 8, !tbaa !14
  br label %14

14:                                               ; preds = %12
  %15 = load ptr, ptr %3, align 8, !tbaa !3
  %16 = icmp ne ptr %15, null
  br i1 %16, label %17, label %52

17:                                               ; preds = %14
  %18 = load ptr, ptr %3, align 8, !tbaa !3
  %19 = getelementptr inbounds nuw %struct.Curl_easy, ptr %18, i32 0, i32 16
  %20 = getelementptr inbounds nuw %struct.UserDefined, ptr %19, i32 0, i32 119
  %21 = load i64, ptr %20, align 2
  %22 = lshr i64 %21, 31
  %23 = and i64 %22, 1
  %24 = trunc i64 %23 to i32
  %25 = icmp ne i32 %24, 0
  br i1 %25, label %26, label %52

26:                                               ; preds = %17
  %27 = load ptr, ptr %3, align 8, !tbaa !3
  %28 = getelementptr inbounds nuw %struct.Curl_easy, ptr %27, i32 0, i32 21
  %29 = getelementptr inbounds nuw %struct.UrlState, ptr %28, i32 0, i32 50
  %30 = load ptr, ptr %29, align 8, !tbaa !28
  %31 = icmp ne ptr %30, null
  br i1 %31, label %32, label %40

32:                                               ; preds = %26
  %33 = load ptr, ptr %3, align 8, !tbaa !3
  %34 = getelementptr inbounds nuw %struct.Curl_easy, ptr %33, i32 0, i32 21
  %35 = getelementptr inbounds nuw %struct.UrlState, ptr %34, i32 0, i32 50
  %36 = load ptr, ptr %35, align 8, !tbaa !28
  %37 = getelementptr inbounds nuw %struct.curl_trc_feat, ptr %36, i32 0, i32 1
  %38 = load i32, ptr %37, align 8, !tbaa !93
  %39 = icmp sge i32 %38, 1
  br i1 %39, label %40, label %52

40:                                               ; preds = %32, %26
  %41 = load i32, ptr getelementptr inbounds nuw (%struct.curl_trc_feat, ptr @Curl_trc_feat_write, i32 0, i32 1), align 8, !tbaa !93
  %42 = icmp sge i32 %41, 1
  br i1 %42, label %43, label %52

43:                                               ; preds = %40
  %44 = load ptr, ptr %3, align 8, !tbaa !3
  %45 = load ptr, ptr %5, align 8, !tbaa !14
  %46 = getelementptr inbounds nuw %struct.cw_out_ctx, ptr %45, i32 0, i32 2
  %47 = load i8, ptr %46, align 8
  %48 = and i8 %47, 1
  %49 = zext i8 %48 to i32
  %50 = icmp ne i32 %49, 0
  %51 = select i1 %50, ptr @.str.2, ptr @.str.3
  call void (ptr, ptr, ...) @Curl_trc_write(ptr noundef %44, ptr noundef @.str.1, ptr noundef %51)
  br label %52

52:                                               ; preds = %43, %40, %32, %17, %14
  br label %53

53:                                               ; preds = %52
  br label %54

54:                                               ; preds = %53
  %55 = load ptr, ptr %5, align 8, !tbaa !14
  %56 = getelementptr inbounds nuw %struct.cw_out_ctx, ptr %55, i32 0, i32 2
  %57 = load i8, ptr %56, align 8
  %58 = and i8 %57, 1
  %59 = zext i8 %58 to i32
  %60 = icmp ne i32 %59, 0
  store i1 %60, ptr %2, align 1
  store i32 1, ptr %6, align 4
  br label %61

61:                                               ; preds = %54, %11
  call void @llvm.lifetime.end.p0(i64 8, ptr %5) #3
  call void @llvm.lifetime.end.p0(i64 8, ptr %4) #3
  %62 = load i1, ptr %2, align 1
  ret i1 %62
}