; Function Attrs: nounwind uwtable
define hidden zeroext i1 @Curl_cw_out_is_paused(ptr noundef %0) local_unnamed_addr #1 {
  %2 = tail call ptr @Curl_cwriter_get_by_type(ptr noundef %0, ptr noundef nonnull @Curl_cwt_out) #5
  %.not = icmp eq ptr %2, null
  br i1 %.not, label %28, label %3

3:                                                ; preds = %1
  %.not15 = icmp eq ptr %0, null
  br i1 %.not15, label %23, label %4

4:                                                ; preds = %3
  %5 = getelementptr inbounds nuw i8, ptr %0, i64 2658
  %6 = load i64, ptr %5, align 2
  %7 = and i64 %6, 2147483648
  %.not16 = icmp eq i64 %7, 0
  br i1 %.not16, label %23, label %8

8:                                                ; preds = %4
  %9 = getelementptr inbounds nuw i8, ptr %0, i64 4864
  %10 = load ptr, ptr %9, align 8, !tbaa !22
  %.not17 = icmp eq ptr %10, null
  br i1 %.not17, label %17, label %11

11:                                               ; preds = %8
  %12 = getelementptr inbounds nuw i8, ptr %10, i64 8
  %13 = load i32, ptr %12, align 8, !tbaa !86
  %14 = icmp sgt i32 %13, 0
  %15 = load i32, ptr getelementptr inbounds nuw (i8, ptr @Curl_trc_feat_write, i64 8), align 8
  %16 = icmp sgt i32 %15, 0
  %or.cond = select i1 %14, i1 %16, i1 false
  br i1 %or.cond, label %18, label %23

17:                                               ; preds = %8
  %.old = load i32, ptr getelementptr inbounds nuw (i8, ptr @Curl_trc_feat_write, i64 8), align 8, !tbaa !86
  %.old1 = icmp sgt i32 %.old, 0
  br i1 %.old1, label %18, label %23

18:                                               ; preds = %11, %17
  %19 = getelementptr inbounds nuw i8, ptr %2, i64 40
  %20 = load i8, ptr %19, align 8
  %21 = and i8 %20, 1
  %.not18 = icmp eq i8 %21, 0
  %22 = select i1 %.not18, ptr @.str.3, ptr @.str.2
  tail call void (ptr, ptr, ...) @Curl_trc_write(ptr noundef nonnull %0, ptr noundef nonnull @.str.1, ptr noundef nonnull %22) #5
  br label %23

23:                                               ; preds = %18, %17, %11, %4, %3
  %24 = getelementptr inbounds nuw i8, ptr %2, i64 40
  %25 = load i8, ptr %24, align 8
  %26 = and i8 %25, 1
  %27 = icmp ne i8 %26, 0
  br label %28

28:                                               ; preds = %1, %23
  %.0 = phi i1 [ %27, %23 ], [ false, %1 ]
  ret i1 %.0
}